target datalayout = "e-m:e-p270:32:32-p271:32:32-p272:64:64-i64:64-i128:128-f80:128-n8:16:32:64-S128"
target triple = "x86_64-pc-linux-gnu"

%struct.GetBitContext = type { ptr, ptr, i32, i32, i32 }

@.str.28 = private unnamed_addr constant [30 x i8] c"Assertion %s failed at %s:%d\0A\00", align 1
@.str.30 = private unnamed_addr constant [20 x i8] c"libavcodec/ac3dec.c\00", align 1
@.str.46 = private unnamed_addr constant [47 x i8] c"band_struct_size >= start_subband + n_subbands\00", align 1

; Function Attrs: inlinehint nounwind uwtable
define internal i32 @get_bits1(ptr noundef %0) #5 {
  %2 = alloca ptr, align 8
  %3 = alloca i32, align 4
  %4 = alloca i8, align 1
  store ptr %0, ptr %2, align 8, !tbaa !147
  call void @llvm.lifetime.start.p0(i64 4, ptr %3) #13
  %5 = load ptr, ptr %2, align 8, !tbaa !147
  %6 = getelementptr inbounds nuw %struct.GetBitContext, ptr %5, i32 0, i32 2
  %7 = load i32, ptr %6, align 8, !tbaa !217
  store i32 %7, ptr %3, align 4, !tbaa !42
  call void @llvm.lifetime.start.p0(i64 1, ptr %4) #13
  %8 = load ptr, ptr %2, align 8, !tbaa !147
  %9 = getelementptr inbounds nuw %struct.GetBitContext, ptr %8, i32 0, i32 0
  %10 = load ptr, ptr %9, align 8, !tbaa !213
  %11 = load i32, ptr %3, align 4, !tbaa !42
  %12 = lshr i32 %11, 3
  %13 = zext i32 %12 to i64
  %14 = getelementptr inbounds nuw i8, ptr %10, i64 %13
  %15 = load i8, ptr %14, align 1, !tbaa !59
  store i8 %15, ptr %4, align 1, !tbaa !59
  %16 = load i32, ptr %3, align 4, !tbaa !42
  %17 = and i32 %16, 7
  %18 = load i8, ptr %4, align 1, !tbaa !59
  %19 = zext i8 %18 to i32
  %20 = shl i32 %19, %17
  %21 = trunc i32 %20 to i8
  store i8 %21, ptr %4, align 1, !tbaa !59
  %22 = load i8, ptr %4, align 1, !tbaa !59
  %23 = zext i8 %22 to i32
  %24 = ashr i32 %23, 7
  %25 = trunc i32 %24 to i8
  store i8 %25, ptr %4, align 1, !tbaa !59
  %26 = load ptr, ptr %2, align 8, !tbaa !147
  %27 = getelementptr inbounds nuw %struct.GetBitContext, ptr %26, i32 0, i32 2
  %28 = load i32, ptr %27, align 8, !tbaa !217
  %29 = load ptr, ptr %2, align 8, !tbaa !147
  %30 = getelementptr inbounds nuw %struct.GetBitContext, ptr %29, i32 0, i32 4
  %31 = load i32, ptr %30, align 8, !tbaa !215
  %32 = icmp slt i32 %28, %31
  br i1 %32, label %33, label %36

33:                                               ; preds = %1
  %34 = load i32, ptr %3, align 4, !tbaa !42
  %35 = add i32 %34, 1
  store i32 %35, ptr %3, align 4, !tbaa !42
  br label %36

36:                                               ; preds = %33, %1
  %37 = load i32, ptr %3, align 4, !tbaa !42
  %38 = load ptr, ptr %2, align 8, !tbaa !147
  %39 = getelementptr inbounds nuw %struct.GetBitContext, ptr %38, i32 0, i32 2
  store i32 %37, ptr %39, align 8, !tbaa !217
  %40 = load i8, ptr %4, align 1, !tbaa !59
  %41 = zext i8 %40 to i32
  call void @llvm.lifetime.end.p0(i64 1, ptr %4) #13
  call void @llvm.lifetime.end.p0(i64 4, ptr %3) #13
  ret i32 %41
}

; Function Attrs: nounwind uwtable
define internal void @decode_band_structure(ptr noundef %0, i32 noundef %1, i32 noundef %2, i32 noundef %3, i32 noundef %4, i32 noundef %5, ptr noundef %6, ptr noundef %7, ptr noundef %8, ptr noundef %9, i32 noundef %10) #1 {
  %12 = alloca ptr, align 8
  %13 = alloca i32, align 4
  %14 = alloca i32, align 4
  %15 = alloca i32, align 4
  %16 = alloca i32, align 4
  %17 = alloca i32, align 4
  %18 = alloca ptr, align 8
  %19 = alloca ptr, align 8
  %20 = alloca ptr, align 8
  %21 = alloca ptr, align 8
  %22 = alloca i32, align 4
  %23 = alloca i32, align 4
  %24 = alloca i32, align 4
  %25 = alloca i32, align 4
  %26 = alloca i32, align 4
  %27 = alloca [22 x i8], align 16
  %28 = alloca i32, align 4
  store ptr %0, ptr %12, align 8, !tbaa !147
  store i32 %1, ptr %13, align 4, !tbaa !42
  store i32 %2, ptr %14, align 4, !tbaa !42
  store i32 %3, ptr %15, align 4, !tbaa !42
  store i32 %4, ptr %16, align 4, !tbaa !42
  store i32 %5, ptr %17, align 4, !tbaa !42
  store ptr %6, ptr %18, align 8, !tbaa !56
  store ptr %7, ptr %19, align 8, !tbaa !47
  store ptr %8, ptr %20, align 8, !tbaa !56
  store ptr %9, ptr %21, align 8, !tbaa !56
  store i32 %10, ptr %22, align 4, !tbaa !42
  call void @llvm.lifetime.start.p0(i64 4, ptr %23) #13
  call void @llvm.lifetime.start.p0(i64 4, ptr %24) #13
  call void @llvm.lifetime.start.p0(i64 4, ptr %25) #13
  call void @llvm.lifetime.start.p0(i64 4, ptr %26) #13
  store i32 0, ptr %26, align 4, !tbaa !42
  call void @llvm.lifetime.start.p0(i64 22, ptr %27) #13
  %29 = load i32, ptr %17, align 4, !tbaa !42
  %30 = load i32, ptr %16, align 4, !tbaa !42
  %31 = sub nsw i32 %29, %30
  store i32 %31, ptr %25, align 4, !tbaa !42
  %32 = load i32, ptr %13, align 4, !tbaa !42
  %33 = icmp ne i32 %32, 0
  br i1 %33, label %39, label %34

34:                                               ; preds = %11
  %35 = load ptr, ptr %21, align 8, !tbaa !56
  %36 = load ptr, ptr %18, align 8, !tbaa !56
  %37 = load i32, ptr %22, align 4, !tbaa !42
  %38 = sext i32 %37 to i64
  call void @llvm.memcpy.p0.p0.i64(ptr align 1 %35, ptr align 1 %36, i64 %38, i1 false)
  br label %39

39:                                               ; preds = %34, %11
  br label %40

40:                                               ; preds = %39
  %41 = load i32, ptr %22, align 4, !tbaa !42
  %42 = load i32, ptr %16, align 4, !tbaa !42
  %43 = load i32, ptr %25, align 4, !tbaa !42
  %44 = add nsw i32 %42, %43
  %45 = icmp sge i32 %41, %44
  br i1 %45, label %47, label %46

46:                                               ; preds = %40
  call void (ptr, i32, ptr, ...) @av_log(ptr noundef null, i32 noundef 0, ptr noundef @.str.28, ptr noundef @.str.46, ptr noundef @.str.30, i32 noundef 819)
  call void @abort() #16
  unreachable

47:                                               ; preds = %40
  br label %48

48:                                               ; preds = %47
  br label %49

49:                                               ; preds = %48
  %50 = load i32, ptr %16, align 4, !tbaa !42
  %51 = add nsw i32 %50, 1
  %52 = load ptr, ptr %21, align 8, !tbaa !56
  %53 = sext i32 %51 to i64
  %54 = getelementptr inbounds i8, ptr %52, i64 %53
  store ptr %54, ptr %21, align 8, !tbaa !56
  %55 = load i32, ptr %14, align 4, !tbaa !42
  %56 = icmp ne i32 %55, 0
  br i1 %56, label %57, label %61

57:                                               ; preds = %49
  %58 = load ptr, ptr %12, align 8, !tbaa !147
  %59 = call i32 @get_bits1(ptr noundef %58)
  %60 = icmp ne i32 %59, 0
  br i1 %60, label %61, label %79

61:                                               ; preds = %57, %49
  store i32 0, ptr %23, align 4, !tbaa !42
  br label %62

62:                                               ; preds = %75, %61
  %63 = load i32, ptr %23, align 4, !tbaa !42
  %64 = load i32, ptr %25, align 4, !tbaa !42
  %65 = sub nsw i32 %64, 1
  %66 = icmp slt i32 %63, %65
  br i1 %66, label %67, label %78

67:                                               ; preds = %62
  %68 = load ptr, ptr %12, align 8, !tbaa !147
  %69 = call i32 @get_bits1(ptr noundef %68)
  %70 = trunc i32 %69 to i8
  %71 = load ptr, ptr %21, align 8, !tbaa !56
  %72 = load i32, ptr %23, align 4, !tbaa !42
  %73 = sext i32 %72 to i64
  %74 = getelementptr inbounds i8, ptr %71, i64 %73
  store i8 %70, ptr %74, align 1, !tbaa !59
  br label %75

75:                                               ; preds = %67
  %76 = load i32, ptr %23, align 4, !tbaa !42
  %77 = add nsw i32 %76, 1
  store i32 %77, ptr %23, align 4, !tbaa !42
  br label %62, !llvm.loop !293

78:                                               ; preds = %62
  br label %79

79:                                               ; preds = %78, %57
  %80 = load ptr, ptr %19, align 8, !tbaa !47
  %81 = icmp ne ptr %80, null
  br i1 %81, label %85, label %82

82:                                               ; preds = %79
  %83 = load ptr, ptr %20, align 8, !tbaa !56
  %84 = icmp ne ptr %83, null
  br i1 %84, label %85, label %135

85:                                               ; preds = %82, %79
  %86 = load i32, ptr %25, align 4, !tbaa !42
  store i32 %86, ptr %26, align 4, !tbaa !42
  %87 = load i32, ptr %15, align 4, !tbaa !42
  %88 = icmp ne i32 %87, 0
  %89 = select i1 %88, i32 6, i32 12
  %90 = trunc i32 %89 to i8
  %91 = getelementptr inbounds [22 x i8], ptr %27, i64 0, i64 0
  store i8 %90, ptr %91, align 16, !tbaa !59
  store i32 0, ptr %24, align 4, !tbaa !42
  store i32 1, ptr %23, align 4, !tbaa !42
  br label %92

92:                                               ; preds = %131, %85
  %93 = load i32, ptr %23, align 4, !tbaa !42
  %94 = load i32, ptr %25, align 4, !tbaa !42
  %95 = icmp slt i32 %93, %94
  br i1 %95, label %96, label %134

96:                                               ; preds = %92
  call void @llvm.lifetime.start.p0(i64 4, ptr %28) #13
  %97 = load i32, ptr %15, align 4, !tbaa !42
  %98 = icmp ne i32 %97, 0
  br i1 %98, label %99, label %102

99:                                               ; preds = %96
  %100 = load i32, ptr %23, align 4, !tbaa !42
  %101 = icmp slt i32 %100, 4
  br label %102

102:                                              ; preds = %99, %96
  %103 = phi i1 [ false, %96 ], [ %101, %99 ]
  %104 = select i1 %103, i32 6, i32 12
  store i32 %104, ptr %28, align 4, !tbaa !42
  %105 = load ptr, ptr %21, align 8, !tbaa !56
  %106 = load i32, ptr %23, align 4, !tbaa !42
  %107 = sub nsw i32 %106, 1
  %108 = sext i32 %107 to i64
  %109 = getelementptr inbounds i8, ptr %105, i64 %108
  %110 = load i8, ptr %109, align 1, !tbaa !59
  %111 = icmp ne i8 %110, 0
  br i1 %111, label %112, label %123

112:                                              ; preds = %102
  %113 = load i32, ptr %26, align 4, !tbaa !42
  %114 = add nsw i32 %113, -1
  store i32 %114, ptr %26, align 4, !tbaa !42
  %115 = load i32, ptr %28, align 4, !tbaa !42
  %116 = load i32, ptr %24, align 4, !tbaa !42
  %117 = sext i32 %116 to i64
  %118 = getelementptr inbounds [22 x i8], ptr %27, i64 0, i64 %117
  %119 = load i8, ptr %118, align 1, !tbaa !59
  %120 = zext i8 %119 to i32
  %121 = add nsw i32 %120, %115
  %122 = trunc i32 %121 to i8
  store i8 %122, ptr %118, align 1, !tbaa !59
  br label %130

123:                                              ; preds = %102
  %124 = load i32, ptr %28, align 4, !tbaa !42
  %125 = trunc i32 %124 to i8
  %126 = load i32, ptr %24, align 4, !tbaa !42
  %127 = add nsw i32 %126, 1
  store i32 %127, ptr %24, align 4, !tbaa !42
  %128 = sext i32 %127 to i64
  %129 = getelementptr inbounds [22 x i8], ptr %27, i64 0, i64 %128
  store i8 %125, ptr %129, align 1, !tbaa !59
  br label %130

130:                                              ; preds = %123, %112
  call void @llvm.lifetime.end.p0(i64 4, ptr %28) #13
  br label %131

131:                                              ; preds = %130
  %132 = load i32, ptr %23, align 4, !tbaa !42
  %133 = add nsw i32 %132, 1
  store i32 %133, ptr %23, align 4, !tbaa !42
  br label %92, !llvm.loop !294

134:                                              ; preds = %92
  br label %135

135:                                              ; preds = %134, %82
  %136 = load ptr, ptr %19, align 8, !tbaa !47
  %137 = icmp ne ptr %136, null
  br i1 %137, label %138, label %141

138:                                              ; preds = %135
  %139 = load i32, ptr %26, align 4, !tbaa !42
  %140 = load ptr, ptr %19, align 8, !tbaa !47
  store i32 %139, ptr %140, align 4, !tbaa !42
  br label %141

141:                                              ; preds = %138, %135
  %142 = load ptr, ptr %20, align 8, !tbaa !56
  %143 = icmp ne ptr %142, null
  br i1 %143, label %144, label %149

144:                                              ; preds = %141
  %145 = load ptr, ptr %20, align 8, !tbaa !56
  %146 = getelementptr inbounds [22 x i8], ptr %27, i64 0, i64 0
  %147 = load i32, ptr %26, align 4, !tbaa !42
  %148 = sext i32 %147 to i64
  call void @llvm.memcpy.p0.p0.i64(ptr align 1 %145, ptr align 16 %146, i64 %148, i1 false)
  br label %149

149:                                              ; preds = %144, %141
  call void @llvm.lifetime.end.p0(i64 22, ptr %27) #13
  call void @llvm.lifetime.end.p0(i64 4, ptr %26) #13
  call void @llvm.lifetime.end.p0(i64 4, ptr %25) #13
  call void @llvm.lifetime.end.p0(i64 4, ptr %24) #13
  call void @llvm.lifetime.end.p0(i64 4, ptr %23) #13
  ret void
}