; Function Attrs: nounwind uwtable
define internal fastcc void @decode_band_structure(ptr noundef captures(none) %0, i32 noundef %1, i32 noundef %2, i32 noundef %3, i32 noundef %4, ptr noundef readonly captures(none) %5, ptr noundef writeonly captures(address_is_null) %6, ptr noundef writeonly captures(address_is_null) %7, ptr noundef captures(none) %8, i32 noundef range(i32 17, 19) %9) unnamed_addr #1 {
  %11 = alloca [22 x i8], align 16
  call void @llvm.lifetime.start.p0(i64 22, ptr nonnull %11) #12
  %12 = sub i32 %4, %3
  %.not = icmp eq i32 %1, 0
  br i1 %.not, label %13, label %15

13:                                               ; preds = %10
  %14 = zext nneg i32 %9 to i64
  tail call void @llvm.memcpy.p0.p0.i64(ptr noundef nonnull align 1 dereferenceable(1) %8, ptr noundef nonnull align 1 dereferenceable(1) %5, i64 %14, i1 false)
  br label %15

15:                                               ; preds = %10, %13
  %.not47 = icmp slt i32 %9, %4
  br i1 %.not47, label %16, label %17

16:                                               ; preds = %15
  tail call void (ptr, i32, ptr, ...) @av_log(ptr noundef null, i32 noundef 0, ptr noundef nonnull @.str.28, ptr noundef nonnull @.str.46, ptr noundef nonnull @.str.30, i32 noundef 819) #12
  tail call void @abort() #14
  unreachable

17:                                               ; preds = %15
  %18 = sext i32 %3 to i64
  %19 = getelementptr i8, ptr %8, i64 %18
  %20 = getelementptr i8, ptr %19, i64 1
  %.not48 = icmp eq i32 %2, 0
  br i1 %.not48, label %38, label %21

21:                                               ; preds = %17
  %22 = getelementptr inbounds nuw i8, ptr %0, i64 16
  %23 = load i32, ptr %22, align 8, !tbaa !60
  %24 = load ptr, ptr %0, align 8, !tbaa !56
  %25 = lshr i32 %23, 3
  %26 = zext nneg i32 %25 to i64
  %27 = getelementptr inbounds nuw i8, ptr %24, i64 %26
  %28 = load i8, ptr %27, align 1, !tbaa !44
  %29 = getelementptr inbounds nuw i8, ptr %0, i64 24
  %30 = load i32, ptr %29, align 8, !tbaa !58
  %31 = icmp slt i32 %23, %30
  %32 = zext i1 %31 to i32
  %spec.select.i = add i32 %23, %32
  %33 = zext i8 %28 to i32
  %34 = and i32 %23, 7
  store i32 %spec.select.i, ptr %22, align 8, !tbaa !60
  %35 = lshr exact i32 128, %34
  %36 = and i32 %35, %33
  %.not49 = icmp ne i32 %36, 0
  %37 = icmp sgt i32 %12, 1
  %or.cond67 = and i1 %.not49, %37
  br i1 %or.cond67, label %.lr.ph, label %.loopexit

38:                                               ; preds = %17
  %.old = icmp sgt i32 %12, 1
  br i1 %.old, label %.lr.ph, label %.loopexit

.lr.ph:                                           ; preds = %21, %38
  %39 = add nsw i32 %12, -1
  %40 = getelementptr inbounds nuw i8, ptr %0, i64 16
  %41 = getelementptr inbounds nuw i8, ptr %0, i64 24
  %wide.trip.count = zext nneg i32 %39 to i64
  br label %42

42:                                               ; preds = %.lr.ph, %42
  %indvars.iv = phi i64 [ 0, %.lr.ph ], [ %indvars.iv.next, %42 ]
  %43 = load i32, ptr %40, align 8, !tbaa !60
  %44 = load ptr, ptr %0, align 8, !tbaa !56
  %45 = lshr i32 %43, 3
  %46 = zext nneg i32 %45 to i64
  %47 = getelementptr inbounds nuw i8, ptr %44, i64 %46
  %48 = load i8, ptr %47, align 1, !tbaa !44
  %49 = load i32, ptr %41, align 8, !tbaa !58
  %50 = icmp slt i32 %43, %49
  %51 = zext i1 %50 to i32
  %spec.select.i51 = add i32 %43, %51
  %52 = zext i8 %48 to i32
  %53 = and i32 %43, 7
  %54 = shl nuw nsw i32 %52, %53
  store i32 %spec.select.i51, ptr %40, align 8, !tbaa !60
  %55 = trunc i32 %54 to i8
  %56 = lshr i8 %55, 7
  %57 = getelementptr inbounds nuw i8, ptr %20, i64 %indvars.iv
  store i8 %56, ptr %57, align 1, !tbaa !44
  %indvars.iv.next = add nuw nsw i64 %indvars.iv, 1
  %exitcond.not = icmp eq i64 %indvars.iv.next, %wide.trip.count
  br i1 %exitcond.not, label %.loopexit, label %42, !llvm.loop !282

.loopexit:                                        ; preds = %42, %38, %21
  %58 = icmp ne ptr %6, null
  %59 = icmp ne ptr %7, null
  %or.cond = or i1 %58, %59
  br i1 %or.cond, label %60, label %.thread54

60:                                               ; preds = %.loopexit
  store i8 12, ptr %11, align 16, !tbaa !44
  %61 = icmp sgt i32 %12, 1
  br i1 %61, label %.lr.ph60.preheader, label %._crit_edge

.lr.ph60.preheader:                               ; preds = %60
  %wide.trip.count65 = zext nneg i32 %12 to i64
  br label %.lr.ph60

.lr.ph60:                                         ; preds = %.lr.ph60.preheader, %73
  %indvars.iv62 = phi i64 [ 1, %.lr.ph60.preheader ], [ %indvars.iv.next63, %73 ]
  %.159 = phi i32 [ %12, %.lr.ph60.preheader ], [ %.2, %73 ]
  %.04357 = phi i32 [ 0, %.lr.ph60.preheader ], [ %.144, %73 ]
  %gep = getelementptr i8, ptr %19, i64 %indvars.iv62
  %62 = load i8, ptr %gep, align 1, !tbaa !44
  %.not50 = icmp eq i8 %62, 0
  br i1 %.not50, label %69, label %63

63:                                               ; preds = %.lr.ph60
  %64 = add nsw i32 %.159, -1
  %65 = sext i32 %.04357 to i64
  %66 = getelementptr inbounds [22 x i8], ptr %11, i64 0, i64 %65
  %67 = load i8, ptr %66, align 1, !tbaa !44
  %68 = add i8 %67, 12
  store i8 %68, ptr %66, align 1, !tbaa !44
  br label %73

69:                                               ; preds = %.lr.ph60
  %70 = add nsw i32 %.04357, 1
  %71 = sext i32 %70 to i64
  %72 = getelementptr inbounds [22 x i8], ptr %11, i64 0, i64 %71
  store i8 12, ptr %72, align 1, !tbaa !44
  br label %73

73:                                               ; preds = %69, %63
  %.144 = phi i32 [ %.04357, %63 ], [ %70, %69 ]
  %.2 = phi i32 [ %64, %63 ], [ %.159, %69 ]
  %indvars.iv.next63 = add nuw nsw i64 %indvars.iv62, 1
  %exitcond66.not = icmp eq i64 %indvars.iv.next63, %wide.trip.count65
  br i1 %exitcond66.not, label %._crit_edge, label %.lr.ph60, !llvm.loop !283

._crit_edge:                                      ; preds = %73, %60
  %.1.lcssa = phi i32 [ %12, %60 ], [ %.2, %73 ]
  br i1 %58, label %74, label %75

74:                                               ; preds = %._crit_edge
  store i32 %.1.lcssa, ptr %6, align 4, !tbaa !43
  br label %75

75:                                               ; preds = %74, %._crit_edge
  br i1 %59, label %76, label %.thread54

76:                                               ; preds = %75
  %77 = sext i32 %.1.lcssa to i64
  call void @llvm.memcpy.p0.p0.i64(ptr nonnull align 1 %7, ptr nonnull align 16 %11, i64 %77, i1 false)
  br label %.thread54

.thread54:                                        ; preds = %.loopexit, %76, %75
  call void @llvm.lifetime.end.p0(i64 22, ptr nonnull %11) #12
  ret void
}